; Function Attrs: mustprogress uwtable
define hidden noundef zeroext i1 @_ZNK5osgeo4proj2cs20CoordinateSystemAxis15_isEquivalentToEPKNS0_4util11IComparableENS4_9CriterionERKSt10shared_ptrINS0_2io15DatabaseContextEE(ptr noundef nonnull align 8 dereferenceable(56) %0, ptr noundef %1, i32 noundef %2, ptr noundef nonnull align 8 dereferenceable(16) %3) unnamed_addr #0 align 2 personality ptr @__gxx_personality_v0 {
  %5 = icmp eq ptr %1, null
  br i1 %5, label %.thread, label %6

6:                                                ; preds = %4
  %7 = load ptr, ptr %1, align 8, !tbaa !3
  %8 = icmp eq ptr %7, getelementptr inbounds nuw inrange(-16, 24) (i8, ptr @_ZTVN5osgeo4proj2cs20CoordinateSystemAxisE, i64 80)
  br i1 %8, label %9, label %.thread

9:                                                ; preds = %6
  %10 = getelementptr inbounds nuw i8, ptr %0, i64 48
  %11 = load ptr, ptr %10, align 8, !tbaa !41
  %12 = getelementptr inbounds nuw i8, ptr %11, i64 32
  %13 = load ptr, ptr %12, align 8, !tbaa !43
  %14 = getelementptr inbounds nuw i8, ptr %1, i64 32
  %15 = load ptr, ptr %14, align 8, !tbaa !41
  %16 = getelementptr inbounds nuw i8, ptr %15, i64 32
  %17 = load ptr, ptr %16, align 8, !tbaa !43
  %18 = getelementptr inbounds nuw i8, ptr %13, i64 8
  %19 = load i64, ptr %18, align 8, !tbaa !33
  %20 = getelementptr inbounds nuw i8, ptr %17, i64 8
  %21 = load i64, ptr %20, align 8, !tbaa !33
  %22 = icmp eq i64 %19, %21
  br i1 %22, label %23, label %.thread

23:                                               ; preds = %9
  %24 = icmp eq i64 %19, 0
  br i1 %24, label %_ZNK5osgeo4proj4util8CodeListeqERKS2_.exit.thread, label %_ZNK5osgeo4proj4util8CodeListeqERKS2_.exit

_ZNK5osgeo4proj4util8CodeListeqERKS2_.exit:       ; preds = %23
  %25 = load ptr, ptr %17, align 8, !tbaa !37
  %26 = load ptr, ptr %13, align 8, !tbaa !37
  %bcmp.i.i = tail call i32 @bcmp(ptr %26, ptr %25, i64 %19)
  %27 = icmp eq i32 %bcmp.i.i, 0
  br i1 %27, label %_ZNK5osgeo4proj4util8CodeListeqERKS2_.exit.thread, label %.thread

_ZNK5osgeo4proj4util8CodeListeqERKS2_.exit.thread: ; preds = %23, %_ZNK5osgeo4proj4util8CodeListeqERKS2_.exit
  %28 = getelementptr inbounds nuw i8, ptr %11, i64 40
  %29 = getelementptr inbounds nuw i8, ptr %15, i64 40
  %30 = tail call noundef zeroext i1 @_ZNK5osgeo4proj6common13UnitOfMeasure15_isEquivalentToERKS2_NS0_4util11IComparable9CriterionE(ptr noundef nonnull align 8 dereferenceable(24) %28, ptr noundef nonnull align 8 dereferenceable(24) %29, i32 noundef %2)
  br i1 %30, label %31, label %.thread

31:                                               ; preds = %_ZNK5osgeo4proj4util8CodeListeqERKS2_.exit.thread
  %32 = icmp eq i32 %2, 0
  br i1 %32, label %33, label %_ZStneIcSt11char_traitsIcESaIcEEbRKNSt7__cxx1112basic_stringIT_T0_T1_EESA_.exit.thread16

33:                                               ; preds = %31
  %34 = tail call noundef zeroext i1 @_ZNK5osgeo4proj6common16IdentifiedObject15_isEquivalentToEPKNS0_4util11IComparableENS4_9CriterionERKSt10shared_ptrINS0_2io15DatabaseContextEE(ptr noundef nonnull align 8 dereferenceable(40) %0, ptr noundef nonnull %1, i32 noundef 0, ptr noundef nonnull align 8 dereferenceable(16) %3)
  br i1 %34, label %35, label %.thread

35:                                               ; preds = %33
  %36 = load ptr, ptr %10, align 8, !tbaa !41
  %37 = load ptr, ptr %14, align 8, !tbaa !41
  %38 = getelementptr inbounds nuw i8, ptr %36, i64 8
  %39 = load i64, ptr %38, align 8, !tbaa !33
  %40 = getelementptr inbounds nuw i8, ptr %37, i64 8
  %41 = load i64, ptr %40, align 8, !tbaa !33
  %42 = icmp eq i64 %39, %41
  br i1 %42, label %43, label %.thread

43:                                               ; preds = %35
  %44 = icmp eq i64 %39, 0
  br i1 %44, label %_ZStneIcSt11char_traitsIcESaIcEEbRKNSt7__cxx1112basic_stringIT_T0_T1_EESA_.exit.thread16, label %_ZStneIcSt11char_traitsIcESaIcEEbRKNSt7__cxx1112basic_stringIT_T0_T1_EESA_.exit

_ZStneIcSt11char_traitsIcESaIcEEbRKNSt7__cxx1112basic_stringIT_T0_T1_EESA_.exit: ; preds = %43
  %45 = load ptr, ptr %37, align 8, !tbaa !37
  %46 = load ptr, ptr %36, align 8, !tbaa !37
  %bcmp.i.i14 = tail call i32 @bcmp(ptr %46, ptr %45, i64 %39)
  %.not = icmp eq i32 %bcmp.i.i14, 0
  br i1 %.not, label %_ZStneIcSt11char_traitsIcESaIcEEbRKNSt7__cxx1112basic_stringIT_T0_T1_EESA_.exit.thread16, label %.thread

_ZStneIcSt11char_traitsIcESaIcEEbRKNSt7__cxx1112basic_stringIT_T0_T1_EESA_.exit.thread16: ; preds = %43, %_ZStneIcSt11char_traitsIcESaIcEEbRKNSt7__cxx1112basic_stringIT_T0_T1_EESA_.exit, %31
  br label %.thread

.thread:                                          ; preds = %35, %9, %6, %4, %_ZStneIcSt11char_traitsIcESaIcEEbRKNSt7__cxx1112basic_stringIT_T0_T1_EESA_.exit, %33, %_ZNK5osgeo4proj4util8CodeListeqERKS2_.exit, %_ZNK5osgeo4proj4util8CodeListeqERKS2_.exit.thread, %_ZStneIcSt11char_traitsIcESaIcEEbRKNSt7__cxx1112basic_stringIT_T0_T1_EESA_.exit.thread16
  %.0 = phi i1 [ true, %_ZStneIcSt11char_traitsIcESaIcEEbRKNSt7__cxx1112basic_stringIT_T0_T1_EESA_.exit.thread16 ], [ false, %_ZNK5osgeo4proj4util8CodeListeqERKS2_.exit.thread ], [ false, %_ZNK5osgeo4proj4util8CodeListeqERKS2_.exit ], [ false, %33 ], [ false, %_ZStneIcSt11char_traitsIcESaIcEEbRKNSt7__cxx1112basic_stringIT_T0_T1_EESA_.exit ], [ false, %4 ], [ false, %6 ], [ false, %9 ], [ false, %35 ]
  ret i1 %.0
}